; Function Attrs: mustprogress nounwind uwtable
define internal void @_ZN12_GLOBAL__N_19WriterSpyD1Ev(ptr noundef nonnull align 8 dereferenceable(72) %0) unnamed_addr #8 align 2 personality ptr @__gxx_personality_v0 {
  store ptr getelementptr inbounds ({ [11 x ptr] }, ptr @_ZTVN12_GLOBAL__N_19WriterSpyE, i64 0, i32 0, i64 6), ptr %0, align 8
  %2 = getelementptr inbounds i8, ptr %0, i64 40
  tail call void @_ZNSt7__cxx1112basic_stringIcSt11char_traitsIcESaIcEED1Ev(ptr noundef nonnull align 8 dereferenceable(32) %2) #23
  %3 = getelementptr inbounds i8, ptr %0, i64 32
  %4 = load ptr, ptr %3, align 8
  %.not.i.i.i.i = icmp eq ptr %4, null
  br i1 %.not.i.i.i.i, label %_ZNSt10shared_ptrIN3dap6WriterEED2Ev.exit.i, label %5

5:                                                ; preds = %1
  %6 = getelementptr inbounds i8, ptr %4, i64 8
  %7 = load atomic i64, ptr %6 acquire, align 8
  %8 = icmp eq i64 %7, 4294967297
  %9 = trunc i64 %7 to i32
  br i1 %8, label %10, label %15

10:                                               ; preds = %5
  store i32 0, ptr %6, align 8
  %11 = getelementptr inbounds i8, ptr %4, i64 12
  store i32 0, ptr %11, align 4
  %12 = load ptr, ptr %4, align 8
  %13 = getelementptr inbounds i8, ptr %12, i64 16
  %14 = load ptr, ptr %13, align 8
  tail call void %14(ptr noundef nonnull align 8 dereferenceable(16) %4) #23
  br label %_ZNSt16_Sp_counted_baseILN9__gnu_cxx12_Lock_policyE2EE24_M_release_last_use_coldEv.exit.sink.split.i.i.i.i.i

15:                                               ; preds = %5
  %16 = load i8, ptr @__libc_single_threaded, align 1
  %.not.i.i.i.i.i = icmp eq i8 %16, 0
  br i1 %.not.i.i.i.i.i, label %19, label %17

17:                                               ; preds = %15
  %18 = add nsw i32 %9, -1
  store i32 %18, ptr %6, align 4
  br label %21

19:                                               ; preds = %15
  %20 = atomicrmw volatile add ptr %6, i32 -1 acq_rel, align 4
  br label %21

21:                                               ; preds = %19, %17
  %.0.i.i.i.i.i = phi i32 [ %9, %17 ], [ %20, %19 ]
  %22 = icmp eq i32 %.0.i.i.i.i.i, 1
  br i1 %22, label %23, label %_ZNSt10shared_ptrIN3dap6WriterEED2Ev.exit.i

23:                                               ; preds = %21
  %24 = load ptr, ptr %4, align 8
  %25 = getelementptr inbounds i8, ptr %24, i64 16
  %26 = load ptr, ptr %25, align 8
  tail call void %26(ptr noundef nonnull align 8 dereferenceable(16) %4) #23
  %27 = getelementptr inbounds i8, ptr %4, i64 12
  %28 = load i8, ptr @__libc_single_threaded, align 1
  %.not.i.i.i.i.i.i.i = icmp eq i8 %28, 0
  br i1 %.not.i.i.i.i.i.i.i, label %32, label %29

29:                                               ; preds = %23
  %30 = load i32, ptr %27, align 4
  %31 = add nsw i32 %30, -1
  store i32 %31, ptr %27, align 4
  br label %34

32:                                               ; preds = %23
  %33 = atomicrmw volatile add ptr %27, i32 -1 acq_rel, align 4
  br label %34

34:                                               ; preds = %32, %29
  %.0.i.i.i.i.i.i.i = phi i32 [ %30, %29 ], [ %33, %32 ]
  %35 = icmp eq i32 %.0.i.i.i.i.i.i.i, 1
  br i1 %35, label %_ZNSt16_Sp_counted_baseILN9__gnu_cxx12_Lock_policyE2EE24_M_release_last_use_coldEv.exit.sink.split.i.i.i.i.i, label %_ZNSt10shared_ptrIN3dap6WriterEED2Ev.exit.i

_ZNSt16_Sp_counted_baseILN9__gnu_cxx12_Lock_policyE2EE24_M_release_last_use_coldEv.exit.sink.split.i.i.i.i.i: ; preds = %34, %10
  %36 = load ptr, ptr %4, align 8
  %37 = getelementptr inbounds i8, ptr %36, i64 24
  %38 = load ptr, ptr %37, align 8
  tail call void %38(ptr noundef nonnull align 8 dereferenceable(16) %4) #23
  br label %_ZNSt10shared_ptrIN3dap6WriterEED2Ev.exit.i

_ZNSt10shared_ptrIN3dap6WriterEED2Ev.exit.i:      ; preds = %_ZNSt16_Sp_counted_baseILN9__gnu_cxx12_Lock_policyE2EE24_M_release_last_use_coldEv.exit.sink.split.i.i.i.i.i, %34, %21, %1
  %39 = getelementptr inbounds i8, ptr %0, i64 16
  %40 = load ptr, ptr %39, align 8
  %.not.i.i.i2.i = icmp eq ptr %40, null
  br i1 %.not.i.i.i2.i, label %_ZN12_GLOBAL__N_19WriterSpyD2Ev.exit, label %41

41:                                               ; preds = %_ZNSt10shared_ptrIN3dap6WriterEED2Ev.exit.i
  %42 = getelementptr inbounds i8, ptr %40, i64 8
  %43 = load atomic i64, ptr %42 acquire, align 8
  %44 = icmp eq i64 %43, 4294967297
  %45 = trunc i64 %43 to i32
  br i1 %44, label %46, label %51

46:                                               ; preds = %41
  store i32 0, ptr %42, align 8
  %47 = getelementptr inbounds i8, ptr %40, i64 12
  store i32 0, ptr %47, align 4
  %48 = load ptr, ptr %40, align 8
  %49 = getelementptr inbounds i8, ptr %48, i64 16
  %50 = load ptr, ptr %49, align 8
  tail call void %50(ptr noundef nonnull align 8 dereferenceable(16) %40) #23
  br label %_ZNSt16_Sp_counted_baseILN9__gnu_cxx12_Lock_policyE2EE24_M_release_last_use_coldEv.exit.sink.split.i.i.i.i7.i

51:                                               ; preds = %41
  %52 = load i8, ptr @__libc_single_threaded, align 1
  %.not.i.i.i.i3.i = icmp eq i8 %52, 0
  br i1 %.not.i.i.i.i3.i, label %55, label %53

53:                                               ; preds = %51
  %54 = add nsw i32 %45, -1
  store i32 %54, ptr %42, align 4
  br label %57

55:                                               ; preds = %51
  %56 = atomicrmw volatile add ptr %42, i32 -1 acq_rel, align 4
  br label %57

57:                                               ; preds = %55, %53
  %.0.i.i.i.i4.i = phi i32 [ %45, %53 ], [ %56, %55 ]
  %58 = icmp eq i32 %.0.i.i.i.i4.i, 1
  br i1 %58, label %59, label %_ZN12_GLOBAL__N_19WriterSpyD2Ev.exit

59:                                               ; preds = %57
  %60 = load ptr, ptr %40, align 8
  %61 = getelementptr inbounds i8, ptr %60, i64 16
  %62 = load ptr, ptr %61, align 8
  tail call void %62(ptr noundef nonnull align 8 dereferenceable(16) %40) #23
  %63 = getelementptr inbounds i8, ptr %40, i64 12
  %64 = load i8, ptr @__libc_single_threaded, align 1
  %.not.i.i.i.i.i.i5.i = icmp eq i8 %64, 0
  br i1 %.not.i.i.i.i.i.i5.i, label %68, label %65

65:                                               ; preds = %59
  %66 = load i32, ptr %63, align 4
  %67 = add nsw i32 %66, -1
  store i32 %67, ptr %63, align 4
  br label %70

68:                                               ; preds = %59
  %69 = atomicrmw volatile add ptr %63, i32 -1 acq_rel, align 4
  br label %70

70:                                               ; preds = %68, %65
  %.0.i.i.i.i.i.i6.i = phi i32 [ %66, %65 ], [ %69, %68 ]
  %71 = icmp eq i32 %.0.i.i.i.i.i.i6.i, 1
  br i1 %71, label %_ZNSt16_Sp_counted_baseILN9__gnu_cxx12_Lock_policyE2EE24_M_release_last_use_coldEv.exit.sink.split.i.i.i.i7.i, label %_ZN12_GLOBAL__N_19WriterSpyD2Ev.exit

_ZNSt16_Sp_counted_baseILN9__gnu_cxx12_Lock_policyE2EE24_M_release_last_use_coldEv.exit.sink.split.i.i.i.i7.i: ; preds = %70, %46
  %72 = load ptr, ptr %40, align 8
  %73 = getelementptr inbounds i8, ptr %72, i64 24
  %74 = load ptr, ptr %73, align 8
  tail call void %74(ptr noundef nonnull align 8 dereferenceable(16) %40) #23
  br label %_ZN12_GLOBAL__N_19WriterSpyD2Ev.exit

_ZN12_GLOBAL__N_19WriterSpyD2Ev.exit:             ; preds = %_ZNSt10shared_ptrIN3dap6WriterEED2Ev.exit.i, %57, %70, %_ZNSt16_Sp_counted_baseILN9__gnu_cxx12_Lock_policyE2EE24_M_release_last_use_coldEv.exit.sink.split.i.i.i.i7.i
  ret void
}